target datalayout = "e-m:e-p270:32:32-p271:32:32-p272:64:64-i64:64-i128:128-f80:128-n8:16:32:64-S128"
target triple = "x86_64-pc-linux-gnu"

%"struct.std::_Vector_base" = type { %"struct.std::_Vector_base<unsigned char, std::allocator<unsigned char>>::_Vector_impl" }
%"struct.std::_Vector_base<unsigned char, std::allocator<unsigned char>>::_Vector_impl" = type { %"struct.std::_Vector_base<unsigned char, std::allocator<unsigned char>>::_Vector_impl_data" }
%"struct.std::_Vector_base<unsigned char, std::allocator<unsigned char>>::_Vector_impl_data" = type { ptr, ptr, ptr }
%struct.jpeg_compress_struct = type { ptr, ptr, ptr, ptr, i32, i32, ptr, i32, i32, i32, i32, double, i32, i32, i32, i32, i32, i32, i32, ptr, [4 x ptr], [4 x i32], [4 x ptr], [4 x ptr], [16 x i8], [16 x i8], [16 x i8], i32, ptr, i32, i32, i32, i32, i32, i32, i32, i32, i32, i32, i8, i8, i8, i16, i16, i32, i32, i32, i32, i32, i32, i32, i32, i32, [4 x ptr], i32, i32, i32, [10 x i32], i32, i32, i32, i32, i32, ptr, i32, ptr, ptr, ptr, ptr, ptr, ptr, ptr, ptr, ptr, ptr, i32 }
%"struct.cv::JpegDestination" = type { %struct.jpeg_destination_mgr, ptr, ptr }
%struct.jpeg_destination_mgr = type { ptr, i64, ptr, ptr, ptr }

; Function Attrs: mustprogress nounwind uwtable
define linkonce_odr hidden noundef nonnull align 1 dereferenceable(1) ptr @_ZNSt6vectorIhSaIhEEixEm(ptr noundef nonnull align 8 dereferenceable(24) %0, i64 noundef %1) #5 comdat align 2 {
  %3 = alloca ptr, align 8
  %4 = alloca i64, align 8
  store ptr %0, ptr %3, align 8, !tbaa !227
  store i64 %1, ptr %4, align 8, !tbaa !138
  %5 = load ptr, ptr %3, align 8
  %6 = getelementptr inbounds nuw %"struct.std::_Vector_base", ptr %5, i32 0, i32 0
  %7 = getelementptr inbounds nuw %"struct.std::_Vector_base<unsigned char, std::allocator<unsigned char>>::_Vector_impl_data", ptr %6, i32 0, i32 0
  %8 = load ptr, ptr %7, align 8, !tbaa !236
  %9 = load i64, ptr %4, align 8, !tbaa !138
  %10 = getelementptr inbounds nuw i8, ptr %8, i64 %9
  ret ptr %10
}

; Function Attrs: mustprogress nounwind uwtable
define linkonce_odr hidden noundef i64 @_ZNKSt6vectorIhSaIhEE4sizeEv(ptr noundef nonnull align 8 dereferenceable(24) %0) #5 comdat align 2 {
  %2 = alloca ptr, align 8
  store ptr %0, ptr %2, align 8, !tbaa !227
  %3 = load ptr, ptr %2, align 8
  %4 = getelementptr inbounds nuw %"struct.std::_Vector_base", ptr %3, i32 0, i32 0
  %5 = getelementptr inbounds nuw %"struct.std::_Vector_base<unsigned char, std::allocator<unsigned char>>::_Vector_impl_data", ptr %4, i32 0, i32 1
  %6 = load ptr, ptr %5, align 8, !tbaa !237
  %7 = getelementptr inbounds nuw %"struct.std::_Vector_base", ptr %3, i32 0, i32 0
  %8 = getelementptr inbounds nuw %"struct.std::_Vector_base<unsigned char, std::allocator<unsigned char>>::_Vector_impl_data", ptr %7, i32 0, i32 0
  %9 = load ptr, ptr %8, align 8, !tbaa !236
  %10 = ptrtoint ptr %6 to i64
  %11 = ptrtoint ptr %9 to i64
  %12 = sub i64 %10, %11
  ret i64 %12
}

; Function Attrs: mustprogress uwtable
define internal noundef i32 @_ZN2cvL19empty_output_bufferEP20jpeg_compress_struct(ptr noundef %0) #4 {
  %2 = alloca ptr, align 8
  %3 = alloca ptr, align 8
  %4 = alloca i64, align 8
  %5 = alloca i64, align 8
  store ptr %0, ptr %2, align 8, !tbaa !228
  call void @llvm.lifetime.start.p0(i64 8, ptr %3) #3
  %6 = load ptr, ptr %2, align 8, !tbaa !228
  %7 = getelementptr inbounds nuw %struct.jpeg_compress_struct, ptr %6, i32 0, i32 6
  %8 = load ptr, ptr %7, align 8, !tbaa !232
  store ptr %8, ptr %3, align 8, !tbaa !230
  call void @llvm.lifetime.start.p0(i64 8, ptr %4) #3
  %9 = load ptr, ptr %3, align 8, !tbaa !230
  %10 = getelementptr inbounds nuw %"struct.cv::JpegDestination", ptr %9, i32 0, i32 2
  %11 = load ptr, ptr %10, align 8, !tbaa !196
  %12 = call noundef i64 @_ZNKSt6vectorIhSaIhEE4sizeEv(ptr noundef nonnull align 8 dereferenceable(24) %11) #3
  store i64 %12, ptr %4, align 8, !tbaa !138
  call void @llvm.lifetime.start.p0(i64 8, ptr %5) #3
  %13 = load ptr, ptr %3, align 8, !tbaa !230
  %14 = getelementptr inbounds nuw %"struct.cv::JpegDestination", ptr %13, i32 0, i32 1
  %15 = load ptr, ptr %14, align 8, !tbaa !199
  %16 = call noundef i64 @_ZNKSt6vectorIhSaIhEE4sizeEv(ptr noundef nonnull align 8 dereferenceable(24) %15) #3
  store i64 %16, ptr %5, align 8, !tbaa !138
  %17 = load ptr, ptr %3, align 8, !tbaa !230
  %18 = getelementptr inbounds nuw %"struct.cv::JpegDestination", ptr %17, i32 0, i32 2
  %19 = load ptr, ptr %18, align 8, !tbaa !196
  %20 = load i64, ptr %4, align 8, !tbaa !138
  %21 = load i64, ptr %5, align 8, !tbaa !138
  %22 = add i64 %20, %21
  call void @_ZNSt6vectorIhSaIhEE6resizeEm(ptr noundef nonnull align 8 dereferenceable(24) %19, i64 noundef %22)
  %23 = load ptr, ptr %3, align 8, !tbaa !230
  %24 = getelementptr inbounds nuw %"struct.cv::JpegDestination", ptr %23, i32 0, i32 2
  %25 = load ptr, ptr %24, align 8, !tbaa !196
  %26 = call noundef nonnull align 1 dereferenceable(1) ptr @_ZNSt6vectorIhSaIhEEixEm(ptr noundef nonnull align 8 dereferenceable(24) %25, i64 noundef 0) #3
  %27 = load i64, ptr %4, align 8, !tbaa !138
  %28 = getelementptr inbounds nuw i8, ptr %26, i64 %27
  %29 = load ptr, ptr %3, align 8, !tbaa !230
  %30 = getelementptr inbounds nuw %"struct.cv::JpegDestination", ptr %29, i32 0, i32 1
  %31 = load ptr, ptr %30, align 8, !tbaa !199
  %32 = call noundef nonnull align 1 dereferenceable(1) ptr @_ZNSt6vectorIhSaIhEEixEm(ptr noundef nonnull align 8 dereferenceable(24) %31, i64 noundef 0) #3
  %33 = load i64, ptr %5, align 8, !tbaa !138
  call void @llvm.memcpy.p0.p0.i64(ptr align 1 %28, ptr align 1 %32, i64 %33, i1 false)
  %34 = load ptr, ptr %3, align 8, !tbaa !230
  %35 = getelementptr inbounds nuw %"struct.cv::JpegDestination", ptr %34, i32 0, i32 1
  %36 = load ptr, ptr %35, align 8, !tbaa !199
  %37 = call noundef nonnull align 1 dereferenceable(1) ptr @_ZNSt6vectorIhSaIhEEixEm(ptr noundef nonnull align 8 dereferenceable(24) %36, i64 noundef 0) #3
  %38 = load ptr, ptr %3, align 8, !tbaa !230
  %39 = getelementptr inbounds nuw %"struct.cv::JpegDestination", ptr %38, i32 0, i32 0
  %40 = getelementptr inbounds nuw %struct.jpeg_destination_mgr, ptr %39, i32 0, i32 0
  store ptr %37, ptr %40, align 8, !tbaa !200
  %41 = load i64, ptr %5, align 8, !tbaa !138
  %42 = load ptr, ptr %3, align 8, !tbaa !230
  %43 = getelementptr inbounds nuw %"struct.cv::JpegDestination", ptr %42, i32 0, i32 0
  %44 = getelementptr inbounds nuw %struct.jpeg_destination_mgr, ptr %43, i32 0, i32 1
  store i64 %41, ptr %44, align 8, !tbaa !201
  call void @llvm.lifetime.end.p0(i64 8, ptr %5) #3
  call void @llvm.lifetime.end.p0(i64 8, ptr %4) #3
  call void @llvm.lifetime.end.p0(i64 8, ptr %3) #3
  ret i32 1
}