; Function Attrs: mustprogress uwtable
define internal noundef i32 @_ZN2cvL19empty_output_bufferEP20jpeg_compress_struct(ptr noundef readonly captures(none) %0) #3 {
  %2 = getelementptr inbounds nuw i8, ptr %0, i64 40
  %3 = load ptr, ptr %2, align 8, !tbaa !190
  %4 = getelementptr inbounds nuw i8, ptr %3, i64 48
  %5 = load ptr, ptr %4, align 8, !tbaa !186
  %6 = getelementptr inbounds nuw i8, ptr %5, i64 8
  %7 = load ptr, ptr %6, align 8, !tbaa !171
  %8 = load ptr, ptr %5, align 8, !tbaa !169
  %9 = ptrtoint ptr %7 to i64
  %10 = ptrtoint ptr %8 to i64
  %11 = sub i64 %9, %10
  %12 = getelementptr inbounds nuw i8, ptr %3, i64 40
  %13 = load ptr, ptr %12, align 8, !tbaa !189
  %14 = getelementptr inbounds nuw i8, ptr %13, i64 8
  %15 = load ptr, ptr %14, align 8, !tbaa !171
  %16 = load ptr, ptr %13, align 8, !tbaa !169
  %17 = ptrtoint ptr %15 to i64
  %18 = ptrtoint ptr %16 to i64
  %19 = sub i64 %17, %18
  %20 = add i64 %19, %11
  tail call void @_ZNSt6vectorIhSaIhEE6resizeEm(ptr noundef nonnull align 8 dereferenceable(24) %5, i64 noundef %20)
  %21 = load ptr, ptr %4, align 8, !tbaa !186
  %22 = load ptr, ptr %21, align 8, !tbaa !169
  %23 = getelementptr inbounds nuw i8, ptr %22, i64 %11
  %24 = load ptr, ptr %12, align 8, !tbaa !189
  %25 = load ptr, ptr %24, align 8, !tbaa !169
  tail call void @llvm.memcpy.p0.p0.i64(ptr nonnull align 1 %23, ptr nonnull align 1 %25, i64 %19, i1 false)
  %26 = load ptr, ptr %12, align 8, !tbaa !189
  %27 = load ptr, ptr %26, align 8, !tbaa !169
  store ptr %27, ptr %3, align 8, !tbaa !194
  %28 = getelementptr inbounds nuw i8, ptr %3, i64 8
  store i64 %19, ptr %28, align 8, !tbaa !195
  ret i32 1
}